; Function Attrs: mustprogress uwtable
define noundef zeroext i1 @_ZN3re26Regexp10ParseState20DoLeftParenNoCaptureEv(ptr nocapture noundef nonnull align 8 dereferenceable(48) %this) local_unnamed_addr #8 align 2 personality ptr @__gxx_personality_v0 {
entry:
  %call = tail call noalias noundef nonnull dereferenceable(40) ptr @_Znwm(i64 noundef 40) #28
  %0 = load i32, ptr %this, align 8
  invoke void @_ZN3re26RegexpC1ENS_8RegexpOpENS0_10ParseFlagsE(ptr noundef nonnull align 8 dereferenceable(40) %call, i32 noundef 22, i32 noundef %0)
          to label %invoke.cont unwind label %lpad

invoke.cont:                                      ; preds = %entry
  %1 = getelementptr inbounds i8, ptr %call, i64 24
  store i32 -1, ptr %1, align 8
  %call2 = tail call noundef zeroext i1 @_ZN3re26Regexp10ParseState10PushRegexpEPS0_(ptr noundef nonnull align 8 dereferenceable(48) %this, ptr noundef nonnull %call)
  ret i1 true

lpad:                                             ; preds = %entry
  %2 = landingpad { ptr, i32 }
          cleanup
  tail call void @_ZdlPv(ptr noundef nonnull %call) #26
  resume { ptr, i32 } %2
}